; Function Attrs: mustprogress uwtable
define void @_ZN6casadi15KinsolInterface5ihfunEPKcS2_PcPv(ptr noundef %0, ptr noundef %1, ptr noundef %2, ptr nocapture readnone %3) #3 align 2 personality ptr @__gxx_personality_v0 {
  %5 = invoke noundef nonnull align 8 dereferenceable(8) ptr @_ZN6casadi4uoutEv()
          to label %6 unwind label %20

6:                                                ; preds = %4
  %7 = invoke noundef nonnull align 8 dereferenceable(8) ptr @_ZStlsISt11char_traitsIcEERSt13basic_ostreamIcT_ES5_PKc(ptr noundef nonnull align 8 dereferenceable(8) %5, ptr noundef nonnull @.str.97)
          to label %8 unwind label %20

8:                                                ; preds = %6
  %9 = invoke noundef nonnull align 8 dereferenceable(8) ptr @_ZStlsISt11char_traitsIcEERSt13basic_ostreamIcT_ES5_PKc(ptr noundef nonnull align 8 dereferenceable(8) %7, ptr noundef %0)
          to label %10 unwind label %20

10:                                               ; preds = %8
  %11 = invoke noundef nonnull align 8 dereferenceable(8) ptr @_ZStlsISt11char_traitsIcEERSt13basic_ostreamIcT_ES5_PKc(ptr noundef nonnull align 8 dereferenceable(8) %9, ptr noundef nonnull @.str.98)
          to label %12 unwind label %20

12:                                               ; preds = %10
  %13 = invoke noundef nonnull align 8 dereferenceable(8) ptr @_ZStlsISt11char_traitsIcEERSt13basic_ostreamIcT_ES5_PKc(ptr noundef nonnull align 8 dereferenceable(8) %11, ptr noundef %1)
          to label %14 unwind label %20

14:                                               ; preds = %12
  %15 = invoke noundef nonnull align 8 dereferenceable(8) ptr @_ZStlsISt11char_traitsIcEERSt13basic_ostreamIcT_ES5_PKc(ptr noundef nonnull align 8 dereferenceable(8) %13, ptr noundef nonnull @.str.99)
          to label %16 unwind label %20

16:                                               ; preds = %14
  %17 = invoke noundef nonnull align 8 dereferenceable(8) ptr @_ZStlsISt11char_traitsIcEERSt13basic_ostreamIcT_ES5_PKc(ptr noundef nonnull align 8 dereferenceable(8) %15, ptr noundef %2)
          to label %18 unwind label %20

18:                                               ; preds = %16
  %19 = invoke noundef nonnull align 8 dereferenceable(8) ptr @_ZNSolsEPFRSoS_E(ptr noundef nonnull align 8 dereferenceable(8) %17, ptr noundef nonnull @_ZSt4endlIcSt11char_traitsIcEERSt13basic_ostreamIT_T0_ES6_)
          to label %40 unwind label %20

20:                                               ; preds = %18, %16, %14, %12, %10, %8, %6, %4
  %21 = landingpad { ptr, i32 }
          catch ptr @_ZTISt9exception
  %22 = extractvalue { ptr, i32 } %21, 1
  %23 = tail call i32 @llvm.eh.typeid.for(ptr nonnull @_ZTISt9exception) #19
  %24 = icmp eq i32 %22, %23
  br i1 %24, label %25, label %43

25:                                               ; preds = %20
  %26 = extractvalue { ptr, i32 } %21, 0
  %27 = tail call ptr @__cxa_begin_catch(ptr %26) #19
  %28 = invoke noundef nonnull align 8 dereferenceable(8) ptr @_ZN6casadi4uoutEv()
          to label %29 unwind label %41

29:                                               ; preds = %25
  %30 = invoke noundef nonnull align 8 dereferenceable(8) ptr @_ZStlsISt11char_traitsIcEERSt13basic_ostreamIcT_ES5_PKc(ptr noundef nonnull align 8 dereferenceable(8) %28, ptr noundef nonnull @.str.100)
          to label %31 unwind label %41

31:                                               ; preds = %29
  %32 = load ptr, ptr %27, align 8
  %33 = getelementptr inbounds i8, ptr %32, i64 16
  %34 = load ptr, ptr %33, align 8
  %35 = tail call noundef ptr %34(ptr noundef nonnull align 8 dereferenceable(8) %27) #19
  %36 = invoke noundef nonnull align 8 dereferenceable(8) ptr @_ZStlsISt11char_traitsIcEERSt13basic_ostreamIcT_ES5_PKc(ptr noundef nonnull align 8 dereferenceable(8) %30, ptr noundef %35)
          to label %37 unwind label %41

37:                                               ; preds = %31
  %38 = invoke noundef nonnull align 8 dereferenceable(8) ptr @_ZNSolsEPFRSoS_E(ptr noundef nonnull align 8 dereferenceable(8) %36, ptr noundef nonnull @_ZSt4endlIcSt11char_traitsIcEERSt13basic_ostreamIT_T0_ES6_)
          to label %39 unwind label %41

39:                                               ; preds = %37
  tail call void @__cxa_end_catch()
  br label %40

40:                                               ; preds = %18, %39
  ret void

41:                                               ; preds = %37, %31, %29, %25
  %42 = landingpad { ptr, i32 }
          cleanup
  invoke void @__cxa_end_catch()
          to label %43 unwind label %44

43:                                               ; preds = %41, %20
  %.merged = phi { ptr, i32 } [ %42, %41 ], [ %21, %20 ]
  resume { ptr, i32 } %.merged

44:                                               ; preds = %41
  %45 = landingpad { ptr, i32 }
          catch ptr null
  %46 = extractvalue { ptr, i32 } %45, 0
  tail call void @__clang_call_terminate(ptr %46) #22
  unreachable
}